; ModuleID = '35/2423.c'
source_filename = "35/2423.c"
target datalayout = "e-m:e-p270:32:32-p271:32:32-p272:64:64-i64:64-f80:128-n8:16:32:64-S128"
target triple = "x86_64-pc-linux-gnu"

@.str = private unnamed_addr constant [6 x i8] c"%d,%d\00", align 1
@.str.1 = private unnamed_addr constant [3 x i8] c"%d\00", align 1
@.str.2 = private unnamed_addr constant [6 x i8] c"%d+%d\00", align 1
@.str.3 = private unnamed_addr constant [3 x i8] c"No\00", align 1

; Function Attrs: noinline nounwind uwtable
define dso_local i32 @main() #0 {
  %1 = alloca i32, align 4
  %2 = alloca i32, align 4
  %3 = alloca i32, align 4
  %4 = alloca i32, align 4
  %5 = alloca i8*, align 8
  %6 = alloca i64, align 8
  %7 = alloca i64, align 8
  %8 = alloca i32, align 4
  %9 = alloca i32, align 4
  %10 = alloca i32, align 4
  %11 = alloca i32, align 4
  %12 = alloca i32, align 4
  %13 = alloca i32, align 4
  store i32 0, i32* %1, align 4
  store i32 8, i32* %2, align 4
  %14 = load i32, i32* %2, align 4
  %15 = zext i32 %14 to i64
  %16 = load i32, i32* %2, align 4
  %17 = zext i32 %16 to i64
  %18 = call i8* @llvm.stacksave()
  store i8* %18, i8** %5, align 8
  %19 = mul nuw i64 %15, %17
  %20 = alloca i32, i64 %19, align 16
  store i64 %15, i64* %6, align 8
  store i64 %17, i64* %7, align 8
  %21 = call i32 (i8*, ...) @__isoc99_scanf(i8* getelementptr inbounds ([6 x i8], [6 x i8]* @.str, i64 0, i64 0), i32* %3, i32* %4)
  store i32 0, i32* %12, align 4
  store i32 0, i32* %8, align 4
  br label %22

22:                                               ; preds = %44, %0
  %23 = load i32, i32* %8, align 4
  %24 = load i32, i32* %3, align 4
  %25 = icmp slt i32 %23, %24
  br i1 %25, label %26, label %47

26:                                               ; preds = %22
  store i32 0, i32* %9, align 4
  br label %27

27:                                               ; preds = %40, %26
  %28 = load i32, i32* %9, align 4
  %29 = load i32, i32* %4, align 4
  %30 = icmp slt i32 %28, %29
  br i1 %30, label %31, label %43

31:                                               ; preds = %27
  %32 = load i32, i32* %8, align 4
  %33 = sext i32 %32 to i64
  %34 = mul nsw i64 %33, %17
  %35 = getelementptr inbounds i32, i32* %20, i64 %34
  %36 = load i32, i32* %9, align 4
  %37 = sext i32 %36 to i64
  %38 = getelementptr inbounds i32, i32* %35, i64 %37
  %39 = call i32 (i8*, ...) @__isoc99_scanf(i8* getelementptr inbounds ([3 x i8], [3 x i8]* @.str.1, i64 0, i64 0), i32* %38)
  br label %40

40:                                               ; preds = %31
  %41 = load i32, i32* %9, align 4
  %42 = add nsw i32 %41, 1
  store i32 %42, i32* %9, align 4
  br label %27

43:                                               ; preds = %27
  br label %44

44:                                               ; preds = %43
  %45 = load i32, i32* %8, align 4
  %46 = add nsw i32 %45, 1
  store i32 %46, i32* %8, align 4
  br label %22

47:                                               ; preds = %22
  store i32 0, i32* %8, align 4
  br label %48

48:                                               ; preds = %111, %47
  %49 = load i32, i32* %8, align 4
  %50 = load i32, i32* %3, align 4
  %51 = icmp slt i32 %49, %50
  br i1 %51, label %52, label %114

52:                                               ; preds = %48
  store i32 0, i32* %13, align 4
  store i32 0, i32* %11, align 4
  store i32 0, i32* %9, align 4
  br label %53

53:                                               ; preds = %79, %52
  %54 = load i32, i32* %9, align 4
  %55 = load i32, i32* %4, align 4
  %56 = icmp slt i32 %54, %55
  br i1 %56, label %57, label %82

57:                                               ; preds = %53
  %58 = load i32, i32* %13, align 4
  %59 = load i32, i32* %8, align 4
  %60 = sext i32 %59 to i64
  %61 = mul nsw i64 %60, %17
  %62 = getelementptr inbounds i32, i32* %20, i64 %61
  %63 = load i32, i32* %9, align 4
  %64 = sext i32 %63 to i64
  %65 = getelementptr inbounds i32, i32* %62, i64 %64
  %66 = load i32, i32* %65, align 4
  %67 = icmp slt i32 %58, %66
  br i1 %67, label %68, label %78

68:                                               ; preds = %57
  %69 = load i32, i32* %8, align 4
  %70 = sext i32 %69 to i64
  %71 = mul nsw i64 %70, %17
  %72 = getelementptr inbounds i32, i32* %20, i64 %71
  %73 = load i32, i32* %9, align 4
  %74 = sext i32 %73 to i64
  %75 = getelementptr inbounds i32, i32* %72, i64 %74
  %76 = load i32, i32* %75, align 4
  store i32 %76, i32* %13, align 4
  %77 = load i32, i32* %9, align 4
  store i32 %77, i32* %10, align 4
  br label %78

78:                                               ; preds = %68, %57
  br label %79

79:                                               ; preds = %78
  %80 = load i32, i32* %9, align 4
  %81 = add nsw i32 %80, 1
  store i32 %81, i32* %9, align 4
  br label %53

82:                                               ; preds = %53
  store i32 0, i32* %9, align 4
  br label %83

83:                                               ; preds = %100, %82
  %84 = load i32, i32* %9, align 4
  %85 = load i32, i32* %3, align 4
  %86 = icmp slt i32 %84, %85
  br i1 %86, label %87, label %103

87:                                               ; preds = %83
  %88 = load i32, i32* %13, align 4
  %89 = load i32, i32* %9, align 4
  %90 = sext i32 %89 to i64
  %91 = mul nsw i64 %90, %17
  %92 = getelementptr inbounds i32, i32* %20, i64 %91
  %93 = load i32, i32* %10, align 4
  %94 = sext i32 %93 to i64
  %95 = getelementptr inbounds i32, i32* %92, i64 %94
  %96 = load i32, i32* %95, align 4
  %97 = icmp sgt i32 %88, %96
  br i1 %97, label %98, label %99

98:                                               ; preds = %87
  store i32 1, i32* %11, align 4
  br label %99

99:                                               ; preds = %98, %87
  br label %100

100:                                              ; preds = %99
  %101 = load i32, i32* %9, align 4
  %102 = add nsw i32 %101, 1
  store i32 %102, i32* %9, align 4
  br label %83

103:                                              ; preds = %83
  %104 = load i32, i32* %11, align 4
  %105 = icmp eq i32 %104, 0
  br i1 %105, label %106, label %110

106:                                              ; preds = %103
  %107 = load i32, i32* %8, align 4
  %108 = load i32, i32* %10, align 4
  %109 = call i32 (i8*, ...) @printf(i8* getelementptr inbounds ([6 x i8], [6 x i8]* @.str.2, i64 0, i64 0), i32 %107, i32 %108)
  store i32 1, i32* %12, align 4
  br label %114

110:                                              ; preds = %103
  br label %111

111:                                              ; preds = %110
  %112 = load i32, i32* %8, align 4
  %113 = add nsw i32 %112, 1
  store i32 %113, i32* %8, align 4
  br label %48

114:                                              ; preds = %106, %48
  %115 = load i32, i32* %12, align 4
  %116 = icmp eq i32 %115, 0
  br i1 %116, label %117, label %119

117:                                              ; preds = %114
  %118 = call i32 (i8*, ...) @printf(i8* getelementptr inbounds ([3 x i8], [3 x i8]* @.str.3, i64 0, i64 0))
  br label %119

119:                                              ; preds = %117, %114
  store i32 0, i32* %1, align 4
  %120 = load i8*, i8** %5, align 8
  call void @llvm.stackrestore(i8* %120)
  %121 = load i32, i32* %1, align 4
  ret i32 %121
}

; Function Attrs: nounwind
declare i8* @llvm.stacksave() #1

declare dso_local i32 @__isoc99_scanf(i8*, ...) #2

declare dso_local i32 @printf(i8*, ...) #2

; Function Attrs: nounwind
declare void @llvm.stackrestore(i8*) #1


!llvm.module.flags = !{!0}
!llvm.ident = !{!1}

!0 = !{i32 1, !"wchar_size", i32 4}
!1 = !{!"clang version 10.0.0-4ubuntu1 "}
